ARM GAS  C:\Users\User\AppData\Local\Temp\ccOjobkZ.s 			page 1


   1              		.syntax unified
   2              		.cpu cortex-m3
   3              		.fpu softvfp
   4              		.eabi_attribute 20, 1
   5              		.eabi_attribute 21, 1
   6              		.eabi_attribute 23, 3
   7              		.eabi_attribute 24, 1
   8              		.eabi_attribute 25, 1
   9              		.eabi_attribute 26, 1
  10              		.eabi_attribute 30, 1
  11              		.eabi_attribute 34, 1
  12              		.eabi_attribute 18, 4
  13              		.thumb
  14              		.syntax unified
  15              		.file	"main.c"
  16              		.text
  17              	.Ltext0:
  18              		.cfi_sections	.debug_frame
  19              		.global	__aeabi_i2f
  20              		.global	__aeabi_fadd
  21              		.global	__aeabi_f2d
  22              		.global	__aeabi_dmul
  23              		.global	__aeabi_d2f
  24              		.global	__aeabi_fmul
  25              		.global	__aeabi_f2iz
  26              		.section	.text.main,"ax",%progbits
  27              		.align	2
  28              		.global	main
  29              		.thumb
  30              		.thumb_func
  31              		.type	main, %function
  32              	main:
  33              	.LFB64:
  34              		.file 1 "main.c"
   1:main.c        **** /**
   2:main.c        **** * \brief Main source file for the I2C-Master project.
   3:main.c        **** *
   4:main.c        **** * In this project we read the LIS3DH 3-Axis Accelerometer
   5:main.c        **** * output and convert it into m/s^2. After that it is 
   6:main.c        **** * sent through UART (after being converted into mm/s^2).
   7:main.c        **** * The multiread of the axial output registers is triggered
   8:main.c        **** * by the timer ISR that occurs with a 100Hz frequency 
   9:main.c        **** * (same freq. of the registers updating).
  10:main.c        **** */
  11:main.c        **** 
  12:main.c        **** // Include required header files
  13:main.c        **** #include "I2C_Interface.h"
  14:main.c        **** #include "project.h"
  15:main.c        **** #include "stdio.h"
  16:main.c        **** #include "InterruptRoutines.h"
  17:main.c        **** 
  18:main.c        **** /**
  19:main.c        **** *   \brief Address of the Status register
  20:main.c        **** */
  21:main.c        **** #define LIS3DH_STATUS_REG 0x27
  22:main.c        **** 
  23:main.c        **** /**
ARM GAS  C:\Users\User\AppData\Local\Temp\ccOjobkZ.s 			page 2


  24:main.c        **** *   \brief 7-bit I2C address of the slave device.
  25:main.c        **** */
  26:main.c        **** #define LIS3DH_DEVICE_ADDRESS 0x18
  27:main.c        **** 
  28:main.c        **** /**
  29:main.c        **** *   \brief Address of the WHO AM I register
  30:main.c        **** */
  31:main.c        **** #define LIS3DH_WHO_AM_I_REG_ADDR 0x0F
  32:main.c        **** 
  33:main.c        **** /**
  34:main.c        **** *   \brief Address of the Control register 1
  35:main.c        **** */
  36:main.c        **** #define LIS3DH_CTRL_REG1 0x20   
  37:main.c        **** 
  38:main.c        **** /**
  39:main.c        **** *   \brief Address of the Control register 4
  40:main.c        **** */
  41:main.c        **** #define LIS3DH_CTRL_REG4 0x23  
  42:main.c        **** 
  43:main.c        **** /**
  44:main.c        **** *   \brief Address of the output lower register of the x axis. 
  45:main.c        **** *   
  46:main.c        **** *   the higher register of x axis and the higher and lower registers 
  47:main.c        **** *   of the y and z axis are adiacent to this one
  48:main.c        **** */
  49:main.c        **** #define LIS3DH_OUT_X_L 0x28 
  50:main.c        **** 
  51:main.c        **** /**
  52:main.c        **** *   \brief Hex value to set high resolution mode at 100Hz  
  53:main.c        **** */
  54:main.c        **** #define LIS3DH_HIGH_RES_MODE_CTRL_REG1 0x57  
  55:main.c        **** 
  56:main.c        **** /**
  57:main.c        **** *   \brief Hex value to set the +/-4.0g FSR
  58:main.c        **** */
  59:main.c        **** #define LIS3DH_CTRL_REG4_HIGH_RES_MODE 0x18   
  60:main.c        **** 
  61:main.c        **** int main(void)
  62:main.c        **** {
  35              		.loc 1 62 0
  36              		.cfi_startproc
  37              		@ args = 0, pretend = 0, frame = 80
  38              		@ frame_needed = 0, uses_anonymous_args = 0
  39 0000 30B5     		push	{r4, r5, lr}
  40              		.cfi_def_cfa_offset 12
  41              		.cfi_offset 4, -12
  42              		.cfi_offset 5, -8
  43              		.cfi_offset 14, -4
  44 0002 95B0     		sub	sp, sp, #84
  45              		.cfi_def_cfa_offset 96
  63:main.c        ****     CyGlobalIntEnable; /* Enable global interrupts. */
  46              		.loc 1 63 0
  47              		.syntax unified
  48              	@ 63 "main.c" 1
  49 0004 62B6     		CPSIE   i
  50              	@ 0 "" 2
  64:main.c        **** 
ARM GAS  C:\Users\User\AppData\Local\Temp\ccOjobkZ.s 			page 3


  65:main.c        ****     /* Place your initialization/startup code here (e.g. MyInst_Start()) */
  66:main.c        ****     I2C_Peripheral_Start();
  51              		.loc 1 66 0
  52              		.thumb
  53              		.syntax unified
  54 0006 FFF7FEFF 		bl	I2C_Peripheral_Start
  55              	.LVL0:
  67:main.c        ****     UART_Debug_Start();
  56              		.loc 1 67 0
  57 000a FFF7FEFF 		bl	UART_Debug_Start
  58              	.LVL1:
  68:main.c        ****     char message[50];  // String to print out messages on the UART
  69:main.c        ****     
  70:main.c        ****     CyDelay(5); //"The boot procedure is complete about 5 milliseconds after device power-up."
  59              		.loc 1 70 0
  60 000e 0520     		movs	r0, #5
  61 0010 FFF7FEFF 		bl	CyDelay
  62              	.LVL2:
  63              	.LBB2:
  71:main.c        **** 
  72:main.c        **** 
  73:main.c        ****     // Check which devices are present on the I2C bus
  74:main.c        ****     for (int i = 0 ; i < 128; i++)
  64              		.loc 1 74 0
  65 0014 0024     		movs	r4, #0
  66 0016 0CE0     		b	.L2
  67              	.LVL3:
  68              	.L4:
  75:main.c        ****     {
  76:main.c        ****         if (I2C_Peripheral_IsDeviceConnected(i))
  69              		.loc 1 76 0
  70 0018 E0B2     		uxtb	r0, r4
  71 001a FFF7FEFF 		bl	I2C_Peripheral_IsDeviceConnected
  72              	.LVL4:
  73 001e 38B1     		cbz	r0, .L3
  77:main.c        ****         {
  78:main.c        ****             // print out the address is hex format
  79:main.c        ****             sprintf(message, "\r\nDevice 0x%02X is connected\r\n", i);
  74              		.loc 1 79 0
  75 0020 2246     		mov	r2, r4
  76 0022 8D49     		ldr	r1, .L24+16
  77 0024 07A8     		add	r0, sp, #28
  78 0026 FFF7FEFF 		bl	sprintf
  79              	.LVL5:
  80:main.c        ****             UART_Debug_PutString(message); 
  80              		.loc 1 80 0
  81 002a 07A8     		add	r0, sp, #28
  82 002c FFF7FEFF 		bl	UART_Debug_PutString
  83              	.LVL6:
  84              	.L3:
  74:main.c        ****     {
  85              		.loc 1 74 0 discriminator 2
  86 0030 0134     		adds	r4, r4, #1
  87              	.LVL7:
  88              	.L2:
  74:main.c        ****     {
  89              		.loc 1 74 0 is_stmt 0 discriminator 1
ARM GAS  C:\Users\User\AppData\Local\Temp\ccOjobkZ.s 			page 4


  90 0032 7F2C     		cmp	r4, #127
  91 0034 F0DD     		ble	.L4
  92              	.LBE2:
  81:main.c        ****         }
  82:main.c        ****         
  83:main.c        ****     }
  84:main.c        ****     
  85:main.c        ****     /******************************************/
  86:main.c        ****     /*            I2C Reading                 */
  87:main.c        ****     /******************************************/
  88:main.c        ****     
  89:main.c        ****     /* Read WHO AM I register */
  90:main.c        ****     
  91:main.c        ****     uint8_t who_am_i_reg;
  92:main.c        ****     ErrorCode error = I2C_Peripheral_ReadRegister(LIS3DH_DEVICE_ADDRESS,
  93              		.loc 1 92 0 is_stmt 1
  94 0036 0DF11B02 		add	r2, sp, #27
  95 003a 0F21     		movs	r1, #15
  96 003c 1820     		movs	r0, #24
  97 003e FFF7FEFF 		bl	I2C_Peripheral_ReadRegister
  98              	.LVL8:
  93:main.c        ****                                                   LIS3DH_WHO_AM_I_REG_ADDR, 
  94:main.c        ****                                                   &who_am_i_reg);
  95:main.c        ****     if (error == NO_ERROR)
  99              		.loc 1 95 0
 100 0042 48B9     		cbnz	r0, .L5
  96:main.c        ****     {
  97:main.c        ****         sprintf(message, "WHO AM I REG: 0x%02X [Expected: 0x33]\r\n", who_am_i_reg);
 101              		.loc 1 97 0
 102 0044 9DF81B20 		ldrb	r2, [sp, #27]	@ zero_extendqisi2
 103 0048 8449     		ldr	r1, .L24+20
 104 004a 07A8     		add	r0, sp, #28
 105              	.LVL9:
 106 004c FFF7FEFF 		bl	sprintf
 107              	.LVL10:
  98:main.c        ****         UART_Debug_PutString(message); 
 108              		.loc 1 98 0
 109 0050 07A8     		add	r0, sp, #28
 110 0052 FFF7FEFF 		bl	UART_Debug_PutString
 111              	.LVL11:
 112 0056 02E0     		b	.L6
 113              	.LVL12:
 114              	.L5:
  99:main.c        ****     }
 100:main.c        ****     else
 101:main.c        ****     {
 102:main.c        ****         UART_Debug_PutString("Error occurred during I2C comm\r\n");   
 115              		.loc 1 102 0
 116 0058 8148     		ldr	r0, .L24+24
 117              	.LVL13:
 118 005a FFF7FEFF 		bl	UART_Debug_PutString
 119              	.LVL14:
 120              	.L6:
 103:main.c        ****     }
 104:main.c        ****     
 105:main.c        ****     /* Read Status Register */
 106:main.c        ****     
ARM GAS  C:\Users\User\AppData\Local\Temp\ccOjobkZ.s 			page 5


 107:main.c        ****     uint8_t status_register; 
 108:main.c        ****     error = I2C_Peripheral_ReadRegister(LIS3DH_DEVICE_ADDRESS,
 121              		.loc 1 108 0
 122 005e 0DF11A02 		add	r2, sp, #26
 123 0062 2721     		movs	r1, #39
 124 0064 1820     		movs	r0, #24
 125 0066 FFF7FEFF 		bl	I2C_Peripheral_ReadRegister
 126              	.LVL15:
 109:main.c        ****                                         LIS3DH_STATUS_REG,
 110:main.c        ****                                         &status_register);
 111:main.c        ****     if (error == NO_ERROR)
 127              		.loc 1 111 0
 128 006a 48B9     		cbnz	r0, .L7
 112:main.c        ****     {
 113:main.c        ****         sprintf(message, "STATUS REGISTER: 0x%02X\r\n", status_register);
 129              		.loc 1 113 0
 130 006c 9DF81A20 		ldrb	r2, [sp, #26]	@ zero_extendqisi2
 131 0070 7C49     		ldr	r1, .L24+28
 132 0072 07A8     		add	r0, sp, #28
 133              	.LVL16:
 134 0074 FFF7FEFF 		bl	sprintf
 135              	.LVL17:
 114:main.c        ****         UART_Debug_PutString(message); 
 136              		.loc 1 114 0
 137 0078 07A8     		add	r0, sp, #28
 138 007a FFF7FEFF 		bl	UART_Debug_PutString
 139              	.LVL18:
 140 007e 02E0     		b	.L8
 141              	.LVL19:
 142              	.L7:
 115:main.c        ****     }
 116:main.c        ****     else
 117:main.c        ****     {
 118:main.c        ****         UART_Debug_PutString("Error occurred during I2C comm to read status register\r\n");   
 143              		.loc 1 118 0
 144 0080 7948     		ldr	r0, .L24+32
 145              	.LVL20:
 146 0082 FFF7FEFF 		bl	UART_Debug_PutString
 147              	.LVL21:
 148              	.L8:
 119:main.c        ****     }
 120:main.c        ****        
 121:main.c        ****     /******************************************/
 122:main.c        ****     /*        Read Control Register 1         */
 123:main.c        ****     /******************************************/
 124:main.c        ****     uint8_t ctrl_reg1; 
 125:main.c        ****     error = I2C_Peripheral_ReadRegister(LIS3DH_DEVICE_ADDRESS,
 149              		.loc 1 125 0
 150 0086 0DF11902 		add	r2, sp, #25
 151 008a 2021     		movs	r1, #32
 152 008c 1820     		movs	r0, #24
 153 008e FFF7FEFF 		bl	I2C_Peripheral_ReadRegister
 154              	.LVL22:
 126:main.c        ****                                         LIS3DH_CTRL_REG1,
 127:main.c        ****                                         &ctrl_reg1);
 128:main.c        ****     
 129:main.c        ****     if (error == NO_ERROR)
ARM GAS  C:\Users\User\AppData\Local\Temp\ccOjobkZ.s 			page 6


 155              		.loc 1 129 0
 156 0092 48B9     		cbnz	r0, .L9
 130:main.c        ****     {
 131:main.c        ****         sprintf(message, "CONTROL REGISTER 1: 0x%02X\r\n", ctrl_reg1);
 157              		.loc 1 131 0
 158 0094 9DF81920 		ldrb	r2, [sp, #25]	@ zero_extendqisi2
 159 0098 7449     		ldr	r1, .L24+36
 160 009a 07A8     		add	r0, sp, #28
 161              	.LVL23:
 162 009c FFF7FEFF 		bl	sprintf
 163              	.LVL24:
 132:main.c        ****         UART_Debug_PutString(message); 
 164              		.loc 1 132 0
 165 00a0 07A8     		add	r0, sp, #28
 166 00a2 FFF7FEFF 		bl	UART_Debug_PutString
 167              	.LVL25:
 168 00a6 02E0     		b	.L10
 169              	.LVL26:
 170              	.L9:
 133:main.c        ****     }
 134:main.c        ****     else
 135:main.c        ****     {
 136:main.c        ****         UART_Debug_PutString("Error occurred during I2C comm to read control register 1\r\n");   
 171              		.loc 1 136 0
 172 00a8 7148     		ldr	r0, .L24+40
 173              	.LVL27:
 174 00aa FFF7FEFF 		bl	UART_Debug_PutString
 175              	.LVL28:
 176              	.L10:
 137:main.c        ****     }
 138:main.c        ****     
 139:main.c        ****     /******************************************/
 140:main.c        ****     /*            I2C Writing                 */
 141:main.c        ****     /******************************************/
 142:main.c        ****     
 143:main.c        ****            
 144:main.c        ****     if (ctrl_reg1 != LIS3DH_HIGH_RES_MODE_CTRL_REG1)
 177              		.loc 1 144 0
 178 00ae 9DF81930 		ldrb	r3, [sp, #25]	@ zero_extendqisi2
 179 00b2 572B     		cmp	r3, #87
 180 00b4 1DD0     		beq	.L11
 145:main.c        ****     {
 146:main.c        ****         UART_Debug_PutString("Updating the register..\r\n");
 181              		.loc 1 146 0
 182 00b6 6F48     		ldr	r0, .L24+44
 183 00b8 FFF7FEFF 		bl	UART_Debug_PutString
 184              	.LVL29:
 147:main.c        ****         
 148:main.c        ****         ctrl_reg1 = LIS3DH_HIGH_RES_MODE_CTRL_REG1;
 185              		.loc 1 148 0
 186 00bc 5722     		movs	r2, #87
 187 00be 14AC     		add	r4, sp, #80
 188              	.LVL30:
 189 00c0 04F8372D 		strb	r2, [r4, #-55]!
 149:main.c        ****     
 150:main.c        ****         error = I2C_Peripheral_WriteRegister(LIS3DH_DEVICE_ADDRESS,
 190              		.loc 1 150 0
ARM GAS  C:\Users\User\AppData\Local\Temp\ccOjobkZ.s 			page 7


 191 00c4 2021     		movs	r1, #32
 192 00c6 1820     		movs	r0, #24
 193 00c8 FFF7FEFF 		bl	I2C_Peripheral_WriteRegister
 194              	.LVL31:
 151:main.c        ****                                              LIS3DH_CTRL_REG1,
 152:main.c        ****                                              ctrl_reg1);
 153:main.c        ****         
 154:main.c        ****         error = I2C_Peripheral_ReadRegister(LIS3DH_DEVICE_ADDRESS,
 195              		.loc 1 154 0
 196 00cc 2246     		mov	r2, r4
 197 00ce 2021     		movs	r1, #32
 198 00d0 1820     		movs	r0, #24
 199 00d2 FFF7FEFF 		bl	I2C_Peripheral_ReadRegister
 200              	.LVL32:
 155:main.c        ****                                             LIS3DH_CTRL_REG1,
 156:main.c        ****                                             &ctrl_reg1);
 157:main.c        ****         
 158:main.c        ****         if (error == NO_ERROR)
 201              		.loc 1 158 0
 202 00d6 48B9     		cbnz	r0, .L12
 159:main.c        ****         {
 160:main.c        ****             sprintf(message, "CONTROL REGISTER 1 after being updated: 0x%02X\r\n", ctrl_reg1);
 203              		.loc 1 160 0
 204 00d8 9DF81920 		ldrb	r2, [sp, #25]	@ zero_extendqisi2
 205 00dc 6649     		ldr	r1, .L24+48
 206 00de 07A8     		add	r0, sp, #28
 207              	.LVL33:
 208 00e0 FFF7FEFF 		bl	sprintf
 209              	.LVL34:
 161:main.c        ****             UART_Debug_PutString(message); 
 210              		.loc 1 161 0
 211 00e4 07A8     		add	r0, sp, #28
 212 00e6 FFF7FEFF 		bl	UART_Debug_PutString
 213              	.LVL35:
 214 00ea 02E0     		b	.L11
 215              	.LVL36:
 216              	.L12:
 162:main.c        ****         }
 163:main.c        ****         else
 164:main.c        ****         {
 165:main.c        ****             UART_Debug_PutString("Error occurred during I2C comm to set control register 1\r\n");  
 217              		.loc 1 165 0
 218 00ec 6348     		ldr	r0, .L24+52
 219              	.LVL37:
 220 00ee FFF7FEFF 		bl	UART_Debug_PutString
 221              	.LVL38:
 222              	.L11:
 166:main.c        ****         }
 167:main.c        ****     }
 168:main.c        ****     
 169:main.c        ****     /******************************************/
 170:main.c        ****     /*        Read Control Register 4         */
 171:main.c        ****     /******************************************/
 172:main.c        ****         
 173:main.c        ****     uint8_t ctrl_reg4;
 174:main.c        **** 
 175:main.c        ****     error = I2C_Peripheral_ReadRegister(LIS3DH_DEVICE_ADDRESS,
ARM GAS  C:\Users\User\AppData\Local\Temp\ccOjobkZ.s 			page 8


 223              		.loc 1 175 0
 224 00f2 06AA     		add	r2, sp, #24
 225 00f4 2321     		movs	r1, #35
 226 00f6 1820     		movs	r0, #24
 227 00f8 FFF7FEFF 		bl	I2C_Peripheral_ReadRegister
 228              	.LVL39:
 176:main.c        ****                                         LIS3DH_CTRL_REG4,
 177:main.c        ****                                         &ctrl_reg4);
 178:main.c        ****     
 179:main.c        ****     if (error == NO_ERROR)
 229              		.loc 1 179 0
 230 00fc 48B9     		cbnz	r0, .L13
 180:main.c        ****     {
 181:main.c        ****         sprintf(message, "CONTROL REGISTER 4: 0x%02X\r\n", ctrl_reg4);
 231              		.loc 1 181 0
 232 00fe 9DF81820 		ldrb	r2, [sp, #24]	@ zero_extendqisi2
 233 0102 5F49     		ldr	r1, .L24+56
 234 0104 07A8     		add	r0, sp, #28
 235              	.LVL40:
 236 0106 FFF7FEFF 		bl	sprintf
 237              	.LVL41:
 182:main.c        ****         UART_Debug_PutString(message); 
 238              		.loc 1 182 0
 239 010a 07A8     		add	r0, sp, #28
 240 010c FFF7FEFF 		bl	UART_Debug_PutString
 241              	.LVL42:
 242 0110 02E0     		b	.L14
 243              	.LVL43:
 244              	.L13:
 183:main.c        ****     }
 184:main.c        ****     else
 185:main.c        ****     {
 186:main.c        ****         UART_Debug_PutString("Error occurred during I2C comm to read control register4\r\n");   
 245              		.loc 1 186 0
 246 0112 5C48     		ldr	r0, .L24+60
 247              	.LVL44:
 248 0114 FFF7FEFF 		bl	UART_Debug_PutString
 249              	.LVL45:
 250              	.L14:
 187:main.c        ****     }
 188:main.c        ****     
 189:main.c        ****     /******************************************/
 190:main.c        ****     /*            I2C Writing                 */
 191:main.c        ****     /******************************************/
 192:main.c        ****     
 193:main.c        ****     if (ctrl_reg4 != LIS3DH_CTRL_REG4_HIGH_RES_MODE)
 251              		.loc 1 193 0
 252 0118 9DF81830 		ldrb	r3, [sp, #24]	@ zero_extendqisi2
 253 011c 182B     		cmp	r3, #24
 254 011e 1ED0     		beq	.L15
 194:main.c        ****     {
 195:main.c        ****         UART_Debug_PutString("Updating the register..\r\n");
 255              		.loc 1 195 0
 256 0120 5448     		ldr	r0, .L24+44
 257 0122 FFF7FEFF 		bl	UART_Debug_PutString
 258              	.LVL46:
 196:main.c        ****         
ARM GAS  C:\Users\User\AppData\Local\Temp\ccOjobkZ.s 			page 9


 197:main.c        ****         ctrl_reg4 = LIS3DH_CTRL_REG4_HIGH_RES_MODE; // must be changed to the appropriate value
 259              		.loc 1 197 0
 260 0126 1824     		movs	r4, #24
 261 0128 14AD     		add	r5, sp, #80
 262 012a 05F8384D 		strb	r4, [r5, #-56]!
 198:main.c        **** 
 199:main.c        ****         error = I2C_Peripheral_WriteRegister(LIS3DH_DEVICE_ADDRESS,
 263              		.loc 1 199 0
 264 012e 2246     		mov	r2, r4
 265 0130 2321     		movs	r1, #35
 266 0132 2046     		mov	r0, r4
 267 0134 FFF7FEFF 		bl	I2C_Peripheral_WriteRegister
 268              	.LVL47:
 200:main.c        ****                                              LIS3DH_CTRL_REG4,
 201:main.c        ****                                              ctrl_reg4);
 202:main.c        **** 
 203:main.c        ****         error = I2C_Peripheral_ReadRegister(LIS3DH_DEVICE_ADDRESS,
 269              		.loc 1 203 0
 270 0138 2A46     		mov	r2, r5
 271 013a 2321     		movs	r1, #35
 272 013c 2046     		mov	r0, r4
 273 013e FFF7FEFF 		bl	I2C_Peripheral_ReadRegister
 274              	.LVL48:
 204:main.c        ****                                             LIS3DH_CTRL_REG4,
 205:main.c        ****                                             &ctrl_reg4);   
 206:main.c        ****         if (error == NO_ERROR)
 275              		.loc 1 206 0
 276 0142 48B9     		cbnz	r0, .L16
 207:main.c        ****         {
 208:main.c        ****             sprintf(message, "CONTROL REGISTER 4 after being updated: 0x%02X\r\n", ctrl_reg4);
 277              		.loc 1 208 0
 278 0144 9DF81820 		ldrb	r2, [sp, #24]	@ zero_extendqisi2
 279 0148 4F49     		ldr	r1, .L24+64
 280 014a 07A8     		add	r0, sp, #28
 281              	.LVL49:
 282 014c FFF7FEFF 		bl	sprintf
 283              	.LVL50:
 209:main.c        ****             UART_Debug_PutString(message); 
 284              		.loc 1 209 0
 285 0150 07A8     		add	r0, sp, #28
 286 0152 FFF7FEFF 		bl	UART_Debug_PutString
 287              	.LVL51:
 288 0156 02E0     		b	.L15
 289              	.LVL52:
 290              	.L16:
 210:main.c        ****         }
 211:main.c        ****         else
 212:main.c        ****         {
 213:main.c        ****             UART_Debug_PutString("Error occurred during I2C comm to read control register4\r\n");  
 291              		.loc 1 213 0
 292 0158 4A48     		ldr	r0, .L24+60
 293              	.LVL53:
 294 015a FFF7FEFF 		bl	UART_Debug_PutString
 295              	.LVL54:
 296              	.L15:
 214:main.c        ****         }
 215:main.c        ****     }
ARM GAS  C:\Users\User\AppData\Local\Temp\ccOjobkZ.s 			page 10


 216:main.c        ****     
 217:main.c        ****         
 218:main.c        ****     //number of registers we want to read (2 registers per each axis)
 219:main.c        ****     #define OUT_REG_NUMBER 6         
 220:main.c        ****     //total number of bytes we want to sent through the UART (header + axis values bytes*2 (=4) + f
 221:main.c        ****     #define TRANSMIT_BUFFER_SIZE 1+ OUT_REG_NUMBER*2 +1
 222:main.c        **** 
 223:main.c        ****     
 224:main.c        ****     uint8_t AxisData[OUT_REG_NUMBER];            //axis acceleration output data
 225:main.c        ****     uint8_t DataBuffer[TRANSMIT_BUFFER_SIZE];    //buffer containing all the 3 axis outputs + heade
 226:main.c        ****     int16_t OutAxis;                             //right justified output casted at 16 bit
 227:main.c        **** 
 228:main.c        ****     DataBuffer[0] = 0xA0;                        //header
 297              		.loc 1 228 0
 298 015e A023     		movs	r3, #160
 299 0160 8DF80030 		strb	r3, [sp]
 229:main.c        ****     DataBuffer[TRANSMIT_BUFFER_SIZE-1] = 0xC0;   //footer
 300              		.loc 1 229 0
 301 0164 C023     		movs	r3, #192
 302 0166 8DF80D30 		strb	r3, [sp, #13]
 230:main.c        ****     
 231:main.c        ****     Timer_MultiRead_Start();                     //start the Timer which triggers the interrupt on 
 303              		.loc 1 231 0
 304 016a FFF7FEFF 		bl	Timer_MultiRead_Start
 305              	.LVL55:
 232:main.c        ****     isr_MultiRead_StartEx(Custom_isr_MultiRead); //start the Timer isr
 306              		.loc 1 232 0
 307 016e 4748     		ldr	r0, .L24+68
 308 0170 FFF7FEFF 		bl	isr_MultiRead_StartEx
 309              	.LVL56:
 233:main.c        ****     ReadPacketFlag = 0; 
 310              		.loc 1 233 0
 311 0174 0022     		movs	r2, #0
 312 0176 464B     		ldr	r3, .L24+72
 313 0178 1A70     		strb	r2, [r3]
 314              	.L18:
 234:main.c        ****     
 235:main.c        ****     
 236:main.c        ****     float Acc_ms2;                             //axis output in m/s^2
 237:main.c        ****     int32 Acc_mms2;
 238:main.c        ****         
 239:main.c        ****     for(;;)
 240:main.c        ****     {
 241:main.c        ****         if (ReadPacketFlag==1)    //flag that goes high every time the isr occurs
 315              		.loc 1 241 0
 316 017a 454B     		ldr	r3, .L24+72
 317 017c 1B78     		ldrb	r3, [r3]	@ zero_extendqisi2
 318 017e DBB2     		uxtb	r3, r3
 319 0180 012B     		cmp	r3, #1
 320 0182 FAD1     		bne	.L18
 321              	.LBB3:
 242:main.c        ****         {   
 243:main.c        ****             //read the status register
 244:main.c        ****             ErrorCode error = I2C_Peripheral_ReadRegister(LIS3DH_DEVICE_ADDRESS,
 322              		.loc 1 244 0
 323 0184 0DF11A02 		add	r2, sp, #26
 324 0188 2721     		movs	r1, #39
ARM GAS  C:\Users\User\AppData\Local\Temp\ccOjobkZ.s 			page 11


 325 018a 1820     		movs	r0, #24
 326 018c FFF7FEFF 		bl	I2C_Peripheral_ReadRegister
 327              	.LVL57:
 245:main.c        ****                                                           LIS3DH_STATUS_REG,
 246:main.c        ****                                                           &status_register);
 247:main.c        ****             if (error == NO_ERROR)
 328              		.loc 1 247 0
 329 0190 0028     		cmp	r0, #0
 330 0192 F2D1     		bne	.L18
 248:main.c        ****             {
 249:main.c        ****                 if (status_register & 0x08)     //if (ZYXDA==1). To check if new data are available
 331              		.loc 1 249 0
 332 0194 9DF81A30 		ldrb	r3, [sp, #26]	@ zero_extendqisi2
 333 0198 13F0080F 		tst	r3, #8
 334 019c EDD0     		beq	.L18
 250:main.c        ****                 {   
 251:main.c        ****                 //read the x, y, z axis output
 252:main.c        ****                 error = I2C_Peripheral_ReadRegisterMulti(LIS3DH_DEVICE_ADDRESS,
 335              		.loc 1 252 0
 336 019e 04AB     		add	r3, sp, #16
 337 01a0 0622     		movs	r2, #6
 338 01a2 2821     		movs	r1, #40
 339 01a4 1820     		movs	r0, #24
 340              	.LVL58:
 341 01a6 FFF7FEFF 		bl	I2C_Peripheral_ReadRegisterMulti
 342              	.LVL59:
 253:main.c        ****                                                          LIS3DH_OUT_X_L,
 254:main.c        ****                                                          OUT_REG_NUMBER,
 255:main.c        ****                                                          &AxisData[0]);
 256:main.c        ****                     if(error == NO_ERROR)
 343              		.loc 1 256 0
 344 01aa 0028     		cmp	r0, #0
 345 01ac 3FD0     		beq	.L22
 346 01ae E4E7     		b	.L18
 347              	.LVL60:
 348              	.L21:
 349              	.LBB4:
 257:main.c        ****                     {
 258:main.c        ****                         /*
 259:main.c        ****                         *  in this cycle we read the 3 axis acceleration 
 260:main.c        ****                         *  outputs and convert them into m/s^2.
 261:main.c        ****                         *
 262:main.c        ****                         *  After that, in order to trasmit this value through UART 
 263:main.c        ****                         *  keeping 3 decimals without loosing information, 
 264:main.c        ****                         *  it is converted in mm/s^2 and casted into an 
 265:main.c        ****                         *  int32-variable. Then it is splitted 
 266:main.c        ****                         *  into 4 bytes that are sent through the UART.
 267:main.c        ****                         */
 268:main.c        ****                          for (int i=0; i < OUT_REG_NUMBER; i += 2)
 269:main.c        ****                         {
 270:main.c        ****                             //trasforming the 3 axial outputs in 3 right-justified 16-bit integers
 271:main.c        ****                             OutAxis = (int16)((AxisData[i] | (AxisData[i+1]<<8)))>>4; 
 350              		.loc 1 271 0 discriminator 3
 351 01b0 14AB     		add	r3, sp, #80
 352 01b2 2344     		add	r3, r3, r4
 353 01b4 13F8403C 		ldrb	r3, [r3, #-64]	@ zero_extendqisi2
 354 01b8 651C     		adds	r5, r4, #1
ARM GAS  C:\Users\User\AppData\Local\Temp\ccOjobkZ.s 			page 12


 355 01ba 14AA     		add	r2, sp, #80
 356 01bc 2A44     		add	r2, r2, r5
 357 01be 12F8400C 		ldrb	r0, [r2, #-64]	@ zero_extendqisi2
 358 01c2 43EA0020 		orr	r0, r3, r0, lsl #8
 359              	.LVL61:
 272:main.c        ****                             //converting the output values in m/s^2 (for high resol. @ +/-4.0g we h
 273:main.c        ****                             Acc_ms2 = (float) OutAxis * 2 * 9.806 * 0.001;
 360              		.loc 1 273 0 discriminator 3
 361 01c6 40F30B10 		sbfx	r0, r0, #4, #12
 362              	.LVL62:
 363 01ca FFF7FEFF 		bl	__aeabi_i2f
 364              	.LVL63:
 365 01ce 0146     		mov	r1, r0
 366 01d0 FFF7FEFF 		bl	__aeabi_fadd
 367              	.LVL64:
 368 01d4 FFF7FEFF 		bl	__aeabi_f2d
 369              	.LVL65:
 370 01d8 1BA3     		adr	r3, .L24
 371 01da D3E90023 		ldrd	r2, [r3]
 372 01de FFF7FEFF 		bl	__aeabi_dmul
 373              	.LVL66:
 374 01e2 1BA3     		adr	r3, .L24+8
 375 01e4 D3E90023 		ldrd	r2, [r3]
 376 01e8 FFF7FEFF 		bl	__aeabi_dmul
 377              	.LVL67:
 378 01ec FFF7FEFF 		bl	__aeabi_d2f
 379              	.LVL68:
 274:main.c        ****                             //to keep 3 decimals of the acceleration value (Acc_ms2)
 275:main.c        ****                             Acc_mms2 = Acc_ms2 * 1000;
 380              		.loc 1 275 0 discriminator 3
 381 01f0 2849     		ldr	r1, .L24+76
 382 01f2 FFF7FEFF 		bl	__aeabi_fmul
 383              	.LVL69:
 384 01f6 FFF7FEFF 		bl	__aeabi_f2iz
 385              	.LVL70:
 276:main.c        ****                             //storing each axis data in 4 bytes to send them through UART 
 277:main.c        ****                           
 278:main.c        ****                             DataBuffer[i*2+1] = (uint8_t)(Acc_mms2 >> 24);
 386              		.loc 1 278 0 discriminator 3
 387 01fa 6300     		lsls	r3, r4, #1
 388 01fc 5A1C     		adds	r2, r3, #1
 389 01fe 010E     		lsrs	r1, r0, #24
 390 0200 0DF1500E 		add	lr, sp, #80
 391 0204 7244     		add	r2, r2, lr
 392 0206 02F8501C 		strb	r1, [r2, #-80]
 279:main.c        ****                             DataBuffer[i*2+2] = (uint8_t)(Acc_mms2 >> 16);
 393              		.loc 1 279 0 discriminator 3
 394 020a C0F30742 		ubfx	r2, r0, #16, #8
 395 020e 0EEB4505 		add	r5, lr, r5, lsl #1
 396 0212 05F8502C 		strb	r2, [r5, #-80]
 280:main.c        ****                             DataBuffer[i*2+3] = (uint8_t)(Acc_mms2 >> 8);
 397              		.loc 1 280 0 discriminator 3
 398 0216 0333     		adds	r3, r3, #3
 399 0218 C0F30722 		ubfx	r2, r0, #8, #8
 400 021c 7344     		add	r3, r3, lr
 401 021e 03F8502C 		strb	r2, [r3, #-80]
 281:main.c        ****                             DataBuffer[i*2+4] = (uint8_t)(Acc_mms2 & 0xFF);
ARM GAS  C:\Users\User\AppData\Local\Temp\ccOjobkZ.s 			page 13


 402              		.loc 1 281 0 discriminator 3
 403 0222 0234     		adds	r4, r4, #2
 404              	.LVL71:
 405 0224 0EEB4403 		add	r3, lr, r4, lsl #1
 406 0228 03F8500C 		strb	r0, [r3, #-80]
 407              	.LVL72:
 408 022c 00E0     		b	.L20
 409              	.LVL73:
 410              	.L22:
 411              	.LBE4:
 412 022e 0024     		movs	r4, #0
 413              	.LVL74:
 414              	.L20:
 415              	.LBB5:
 268:main.c        ****                         {
 416              		.loc 1 268 0 discriminator 1
 417 0230 052C     		cmp	r4, #5
 418 0232 BDDD     		ble	.L21
 419              	.LBE5:
 282:main.c        ****                           
 283:main.c        ****                         }
 284:main.c        ****                     //the samples are sent through UART communication
 285:main.c        ****                     UART_Debug_PutArray(DataBuffer, TRANSMIT_BUFFER_SIZE);
 420              		.loc 1 285 0
 421 0234 0E21     		movs	r1, #14
 422 0236 6846     		mov	r0, sp
 423 0238 FFF7FEFF 		bl	UART_Debug_PutArray
 424              	.LVL75:
 286:main.c        ****                     ReadPacketFlag=0;
 425              		.loc 1 286 0
 426 023c 0022     		movs	r2, #0
 427 023e 144B     		ldr	r3, .L24+72
 428 0240 1A70     		strb	r2, [r3]
 429 0242 9AE7     		b	.L18
 430              	.L25:
 431 0244 AFF30080 		.align	3
 432              	.L24:
 433 0248 E9263108 		.word	137438953
 434 024c AC9C2340 		.word	1076075692
 435 0250 FCA9F1D2 		.word	-755914244
 436 0254 4D62503F 		.word	1062232653
 437 0258 00000000 		.word	.LC0
 438 025c 20000000 		.word	.LC1
 439 0260 48000000 		.word	.LC2
 440 0264 6C000000 		.word	.LC3
 441 0268 88000000 		.word	.LC4
 442 026c C4000000 		.word	.LC5
 443 0270 E4000000 		.word	.LC6
 444 0274 20010000 		.word	.LC7
 445 0278 3C010000 		.word	.LC8
 446 027c 70010000 		.word	.LC9
 447 0280 AC010000 		.word	.LC10
 448 0284 CC010000 		.word	.LC11
 449 0288 08020000 		.word	.LC12
 450 028c 00000000 		.word	Custom_isr_MultiRead
 451 0290 00000000 		.word	ReadPacketFlag
 452 0294 00007A44 		.word	1148846080
ARM GAS  C:\Users\User\AppData\Local\Temp\ccOjobkZ.s 			page 14


 453              	.LBE3:
 454              		.cfi_endproc
 455              	.LFE64:
 456              		.size	main, .-main
 457              		.comm	ReadPacketFlag,1,1
 458              		.section	.rodata.str1.4,"aMS",%progbits,1
 459              		.align	2
 460              	.LC0:
 461 0000 0D0A4465 		.ascii	"\015\012Device 0x%02X is connected\015\012\000"
 461      76696365 
 461      20307825 
 461      30325820 
 461      69732063 
 462 001f 00       		.space	1
 463              	.LC1:
 464 0020 57484F20 		.ascii	"WHO AM I REG: 0x%02X [Expected: 0x33]\015\012\000"
 464      414D2049 
 464      20524547 
 464      3A203078 
 464      25303258 
 465              	.LC2:
 466 0048 4572726F 		.ascii	"Error occurred during I2C comm\015\012\000"
 466      72206F63 
 466      63757272 
 466      65642064 
 466      7572696E 
 467 0069 000000   		.space	3
 468              	.LC3:
 469 006c 53544154 		.ascii	"STATUS REGISTER: 0x%02X\015\012\000"
 469      55532052 
 469      45474953 
 469      5445523A 
 469      20307825 
 470 0086 0000     		.space	2
 471              	.LC4:
 472 0088 4572726F 		.ascii	"Error occurred during I2C comm to read status regis"
 472      72206F63 
 472      63757272 
 472      65642064 
 472      7572696E 
 473 00bb 7465720D 		.ascii	"ter\015\012\000"
 473      0A00
 474 00c1 000000   		.space	3
 475              	.LC5:
 476 00c4 434F4E54 		.ascii	"CONTROL REGISTER 1: 0x%02X\015\012\000"
 476      524F4C20 
 476      52454749 
 476      53544552 
 476      20313A20 
 477 00e1 000000   		.space	3
 478              	.LC6:
 479 00e4 4572726F 		.ascii	"Error occurred during I2C comm to read control regi"
 479      72206F63 
 479      63757272 
 479      65642064 
 479      7572696E 
 480 0117 73746572 		.ascii	"ster 1\015\012\000"
ARM GAS  C:\Users\User\AppData\Local\Temp\ccOjobkZ.s 			page 15


 480      20310D0A 
 480      00
 481              	.LC7:
 482 0120 55706461 		.ascii	"Updating the register..\015\012\000"
 482      74696E67 
 482      20746865 
 482      20726567 
 482      69737465 
 483 013a 0000     		.space	2
 484              	.LC8:
 485 013c 434F4E54 		.ascii	"CONTROL REGISTER 1 after being updated: 0x%02X\015\012"
 485      524F4C20 
 485      52454749 
 485      53544552 
 485      20312061 
 486 016c 00       		.ascii	"\000"
 487 016d 000000   		.space	3
 488              	.LC9:
 489 0170 4572726F 		.ascii	"Error occurred during I2C comm to set control regis"
 489      72206F63 
 489      63757272 
 489      65642064 
 489      7572696E 
 490 01a3 74657220 		.ascii	"ter 1\015\012\000"
 490      310D0A00 
 491 01ab 00       		.space	1
 492              	.LC10:
 493 01ac 434F4E54 		.ascii	"CONTROL REGISTER 4: 0x%02X\015\012\000"
 493      524F4C20 
 493      52454749 
 493      53544552 
 493      20343A20 
 494 01c9 000000   		.space	3
 495              	.LC11:
 496 01cc 4572726F 		.ascii	"Error occurred during I2C comm to read control regi"
 496      72206F63 
 496      63757272 
 496      65642064 
 496      7572696E 
 497 01ff 73746572 		.ascii	"ster4\015\012\000"
 497      340D0A00 
 498 0207 00       		.space	1
 499              	.LC12:
 500 0208 434F4E54 		.ascii	"CONTROL REGISTER 4 after being updated: 0x%02X\015\012"
 500      524F4C20 
 500      52454749 
 500      53544552 
 500      20342061 
 501 0238 00       		.ascii	"\000"
 502              		.text
 503              	.Letext0:
 504              		.file 2 "c:\\program files (x86)\\cypress\\psoc creator\\4.3\\psoc creator\\import\\gnu\\arm\\5.4.
 505              		.file 3 "c:\\program files (x86)\\cypress\\psoc creator\\4.3\\psoc creator\\import\\gnu\\arm\\5.4.
 506              		.file 4 "Generated_Source\\PSoC5/cytypes.h"
 507              		.file 5 "ErrorCodes.h"
 508              		.file 6 "Generated_Source\\PSoC5/core_cm3.h"
 509              		.file 7 "InterruptRoutines.h"
ARM GAS  C:\Users\User\AppData\Local\Temp\ccOjobkZ.s 			page 16


 510              		.file 8 "I2C_Interface.h"
 511              		.file 9 "c:\\program files (x86)\\cypress\\psoc creator\\4.3\\psoc creator\\import\\gnu\\arm\\5.4.
 512              		.file 10 "Generated_Source\\PSoC5/UART_Debug.h"
 513              		.file 11 "Generated_Source\\PSoC5/CyLib.h"
 514              		.file 12 "Generated_Source\\PSoC5/Timer_MultiRead.h"
 515              		.file 13 "Generated_Source\\PSoC5/isr_MultiRead.h"